; Function Attrs: mustprogress nounwind uwtable
define dso_local void @_ZN4llvm4yaml12ScalarTraitsINS0_4Hex8EvE6outputERKS2_PvRNS_11raw_ostreamE(ptr noundef nonnull readonly align 1 captures(none) dereferenceable(1) %0, ptr noundef readnone captures(none) %1, ptr noundef nonnull align 8 dereferenceable(48) %2) local_unnamed_addr #6 align 2 {
  %4 = alloca %"class.llvm::format_object.91", align 8
  %5 = load i8, ptr %0, align 1
  %6 = getelementptr inbounds nuw i8, ptr %4, i64 8
  store ptr @.str.43, ptr %6, align 8, !alias.scope !77
  store ptr getelementptr inbounds nuw inrange(-16, 16) (i8, ptr @_ZTVN4llvm13format_objectIJhEEE, i64 16), ptr %4, align 8, !alias.scope !77
  %7 = getelementptr inbounds nuw i8, ptr %4, i64 16
  store i8 %5, ptr %7, align 8, !alias.scope !77
  %8 = call noundef nonnull align 8 dereferenceable(48) ptr @_ZN4llvm11raw_ostreamlsERKNS_18format_object_baseE(ptr noundef nonnull align 8 dereferenceable(48) %2, ptr noundef nonnull align 8 dereferenceable(16) %4) #32
  ret void
}